target datalayout = "e-m:e-p270:32:32-p271:32:32-p272:64:64-i64:64-i128:128-f80:128-n8:16:32:64-S128"
target triple = "x86_64-pc-linux-gnu"

%struct.rb_data_type_struct = type { ptr, %struct.anon.12, ptr, ptr, i64 }
%struct.anon.12 = type { ptr, ptr, ptr, ptr, [1 x ptr] }
%struct.ccan_list_node = type { ptr, ptr }
%struct.rb_process_status = type { i32, i32, i32 }
%struct.RTypedData = type { %struct.RBasic, ptr, i64, ptr }
%struct.RBasic = type { i64, i64 }
%struct.waitpid_state = type { %struct.ccan_list_node, ptr, ptr, i32, i32, i32, i32, i32 }
%struct.__sigset_t = type { [16 x i64] }
%struct.rb_execution_context_struct = type { ptr, i64, ptr, ptr, i32, i32, ptr, ptr, ptr, i64, i64, i64, ptr, i64, ptr, i64, i64, i8, i8, i64, %struct.anon.11 }
%struct.anon.11 = type { ptr, ptr, i64, [1 x %struct.__jmp_buf_tag] }
%struct.__jmp_buf_tag = type { [8 x i64], i32, %struct.__sigset_t }

@rb_cProcessStatus = internal global i64 0, align 8
@rb_process_status_type = internal constant %struct.rb_data_type_struct { ptr @.str.172, %struct.anon.12 { ptr null, ptr inttoptr (i64 -1 to ptr), ptr null, ptr null, [1 x ptr] zeroinitializer }, ptr null, ptr null, i64 35 }, align 8
@ruby_current_ec = external thread_local global ptr, align 8

; Function Attrs: inlinehint nounwind sspstrong uwtable
define internal zeroext i1 @RTYPEDDATA_EMBEDDED_P(i64 noundef %0) #1 {
  %2 = alloca i64, align 8
  store i64 %0, ptr %2, align 8, !tbaa !35
  %3 = load i64, ptr %2, align 8, !tbaa !35
  %4 = inttoptr i64 %3 to ptr
  %5 = getelementptr inbounds nuw %struct.RTypedData, ptr %4, i32 0, i32 2
  %6 = load i64, ptr %5, align 8, !tbaa !211
  %7 = and i64 %6, 2
  %8 = icmp ne i64 %7, 0
  ret i1 %8
}

; Function Attrs: inlinehint nounwind sspstrong uwtable
define internal ptr @rb_ec_thread_ptr(ptr noundef %0) #1 {
  %2 = alloca ptr, align 8
  store ptr %0, ptr %2, align 8, !tbaa !33
  %3 = load ptr, ptr %2, align 8, !tbaa !33
  %4 = getelementptr inbounds nuw %struct.rb_execution_context_struct, ptr %3, i32 0, i32 7
  %5 = load ptr, ptr %4, align 8, !tbaa !210
  ret ptr %5
}

; Function Attrs: inlinehint nounwind sspstrong uwtable
define internal zeroext i1 @RUBY_VM_INTERRUPTED_ANY(ptr noundef %0) #1 {
  %2 = alloca ptr, align 8
  store ptr %0, ptr %2, align 8, !tbaa !33
  %3 = load ptr, ptr %2, align 8, !tbaa !33
  %4 = getelementptr inbounds nuw %struct.rb_execution_context_struct, ptr %3, i32 0, i32 4
  %5 = load i32, ptr %4, align 8, !tbaa !212
  %6 = load ptr, ptr %2, align 8, !tbaa !33
  %7 = getelementptr inbounds nuw %struct.rb_execution_context_struct, ptr %6, i32 0, i32 5
  %8 = load i32, ptr %7, align 4, !tbaa !213
  %9 = xor i32 %8, -1
  %10 = and i32 %5, %9
  %11 = icmp ne i32 %10, 0
  ret i1 %11
}

; Function Attrs: inlinehint nounwind sspstrong uwtable
define internal ptr @RTYPEDDATA_GET_DATA(i64 noundef %0) #1 {
  %2 = alloca i64, align 8
  %3 = alloca i64, align 8
  store i64 %0, ptr %2, align 8, !tbaa !35
  call void @llvm.lifetime.start.p0(i64 8, ptr %3) #27
  store i64 32, ptr %3, align 8, !tbaa !35
  %4 = load i64, ptr %2, align 8, !tbaa !35
  %5 = call zeroext i1 @RTYPEDDATA_EMBEDDED_P(i64 noundef %4)
  br i1 %5, label %6, label %10

6:                                                ; preds = %1
  %7 = load i64, ptr %2, align 8, !tbaa !35
  %8 = inttoptr i64 %7 to ptr
  %9 = getelementptr i8, ptr %8, i64 32
  br label %15

10:                                               ; preds = %1
  %11 = load i64, ptr %2, align 8, !tbaa !35
  %12 = inttoptr i64 %11 to ptr
  %13 = getelementptr inbounds nuw %struct.RTypedData, ptr %12, i32 0, i32 3
  %14 = load ptr, ptr %13, align 8, !tbaa !42
  br label %15

15:                                               ; preds = %10, %6
  %16 = phi ptr [ %9, %6 ], [ %14, %10 ]
  call void @llvm.lifetime.end.p0(i64 8, ptr %3) #27
  ret ptr %16
}

; Function Attrs: nounwind sspstrong uwtable
define internal i64 @rb_process_status_allocate(i64 noundef %0) #0 {
  %2 = alloca i64, align 8
  %3 = alloca ptr, align 8
  %4 = alloca i64, align 8
  %5 = alloca i64, align 8
  store i64 %0, ptr %2, align 8, !tbaa !35
  call void @llvm.lifetime.start.p0(i64 8, ptr %3) #27
  call void @llvm.lifetime.start.p0(i64 8, ptr %4) #27
  %6 = load i64, ptr %2, align 8, !tbaa !35
  %7 = call i64 @rb_data_typed_object_zalloc(i64 noundef %6, i64 noundef 12, ptr noundef @rb_process_status_type)
  store i64 %7, ptr %4, align 8, !tbaa !35
  %8 = load i64, ptr %4, align 8, !tbaa !35
  %9 = call ptr @RTYPEDDATA_GET_DATA(i64 noundef %8)
  store ptr %9, ptr %3, align 8, !tbaa !36
  %10 = load i64, ptr %4, align 8, !tbaa !35
  store i64 %10, ptr %5, align 8, !tbaa !35
  call void @llvm.lifetime.end.p0(i64 8, ptr %4) #27
  %11 = load i64, ptr %5, align 8, !tbaa !35
  call void @llvm.lifetime.end.p0(i64 8, ptr %3) #27
  ret i64 %11
}

; Function Attrs: inlinehint nounwind sspstrong uwtable
define internal void @rb_vm_check_ints(ptr noundef %0) #1 {
  %2 = alloca ptr, align 8
  store ptr %0, ptr %2, align 8, !tbaa !33
  %3 = load ptr, ptr %2, align 8, !tbaa !33
  %4 = call zeroext i1 @RUBY_VM_INTERRUPTED_ANY(ptr noundef %3)
  %5 = xor i1 %4, true
  %6 = xor i1 %5, true
  %7 = zext i1 %6 to i32
  %8 = sext i32 %7 to i64
  %9 = call i64 @llvm.expect.i64(i64 %8, i64 0)
  %10 = icmp ne i64 %9, 0
  br i1 %10, label %11, label %15

11:                                               ; preds = %1
  %12 = load ptr, ptr %2, align 8, !tbaa !33
  %13 = call ptr @rb_ec_thread_ptr(ptr noundef %12)
  %14 = call i32 @rb_threadptr_execute_interrupts(ptr noundef %13, i32 noundef 0)
  br label %15

15:                                               ; preds = %11, %1
  ret void
}

; Function Attrs: nounwind sspstrong uwtable
define internal i32 @do_waitpid(i32 noundef %0, ptr noundef %1, i32 noundef %2) #0 {
  %4 = alloca i32, align 4
  %5 = alloca ptr, align 8
  %6 = alloca i32, align 4
  store i32 %0, ptr %4, align 4, !tbaa !34
  store ptr %1, ptr %5, align 8, !tbaa !60
  store i32 %2, ptr %6, align 4, !tbaa !34
  %7 = load i32, ptr %4, align 4, !tbaa !34
  %8 = load ptr, ptr %5, align 8, !tbaa !60
  %9 = load i32, ptr %6, align 4, !tbaa !34
  %10 = call i32 @waitpid(i32 noundef %7, ptr noundef %8, i32 noundef %9)
  ret i32 %10
}

; Function Attrs: nounwind sspstrong uwtable
define hidden i64 @rb_process_status_new(i32 noundef %0, i32 noundef %1, i32 noundef %2) #0 {
  %4 = alloca i32, align 4
  %5 = alloca i32, align 4
  %6 = alloca i32, align 4
  %7 = alloca i64, align 8
  %8 = alloca ptr, align 8
  store i32 %0, ptr %4, align 4, !tbaa !34
  store i32 %1, ptr %5, align 4, !tbaa !34
  store i32 %2, ptr %6, align 4, !tbaa !34
  call void @llvm.lifetime.start.p0(i64 8, ptr %7) #27
  %9 = load i64, ptr @rb_cProcessStatus, align 8, !tbaa !35
  %10 = call i64 @rb_process_status_allocate(i64 noundef %9)
  store i64 %10, ptr %7, align 8, !tbaa !35
  call void @llvm.lifetime.start.p0(i64 8, ptr %8) #27
  %11 = load i64, ptr %7, align 8, !tbaa !35
  %12 = call ptr @RTYPEDDATA_GET_DATA(i64 noundef %11)
  store ptr %12, ptr %8, align 8, !tbaa !36
  %13 = load i32, ptr %4, align 4, !tbaa !34
  %14 = load ptr, ptr %8, align 8, !tbaa !36
  %15 = getelementptr inbounds nuw %struct.rb_process_status, ptr %14, i32 0, i32 0
  store i32 %13, ptr %15, align 4, !tbaa !38
  %16 = load i32, ptr %5, align 4, !tbaa !34
  %17 = load ptr, ptr %8, align 8, !tbaa !36
  %18 = getelementptr inbounds nuw %struct.rb_process_status, ptr %17, i32 0, i32 1
  store i32 %16, ptr %18, align 4, !tbaa !40
  %19 = load i32, ptr %6, align 4, !tbaa !34
  %20 = load ptr, ptr %8, align 8, !tbaa !36
  %21 = getelementptr inbounds nuw %struct.rb_process_status, ptr %20, i32 0, i32 2
  store i32 %19, ptr %21, align 4, !tbaa !41
  %22 = load i64, ptr %7, align 8, !tbaa !35
  %23 = call i64 @rb_obj_freeze(i64 noundef %22)
  %24 = load i64, ptr %7, align 8, !tbaa !35
  call void @llvm.lifetime.end.p0(i64 8, ptr %8) #27
  call void @llvm.lifetime.end.p0(i64 8, ptr %7) #27
  ret i64 %24
}

; Function Attrs: nounwind sspstrong uwtable
define internal void @waitpid_no_SIGCHLD(ptr noundef %0) #0 {
  %2 = alloca ptr, align 8
  store ptr %0, ptr %2, align 8, !tbaa !53
  %3 = load ptr, ptr %2, align 8, !tbaa !53
  %4 = getelementptr inbounds nuw %struct.waitpid_state, ptr %3, i32 0, i32 6
  %5 = load i32, ptr %4, align 4, !tbaa !56
  %6 = and i32 %5, 1
  %7 = icmp ne i32 %6, 0
  br i1 %7, label %8, label %20

8:                                                ; preds = %1
  %9 = load ptr, ptr %2, align 8, !tbaa !53
  %10 = getelementptr inbounds nuw %struct.waitpid_state, ptr %9, i32 0, i32 4
  %11 = load i32, ptr %10, align 4, !tbaa !55
  %12 = load ptr, ptr %2, align 8, !tbaa !53
  %13 = getelementptr inbounds nuw %struct.waitpid_state, ptr %12, i32 0, i32 5
  %14 = load ptr, ptr %2, align 8, !tbaa !53
  %15 = getelementptr inbounds nuw %struct.waitpid_state, ptr %14, i32 0, i32 6
  %16 = load i32, ptr %15, align 4, !tbaa !56
  %17 = call i32 @do_waitpid(i32 noundef %11, ptr noundef %13, i32 noundef %16)
  %18 = load ptr, ptr %2, align 8, !tbaa !53
  %19 = getelementptr inbounds nuw %struct.waitpid_state, ptr %18, i32 0, i32 3
  store i32 %17, ptr %19, align 8, !tbaa !50
  br label %40

20:                                               ; preds = %1
  br label %21

21:                                               ; preds = %37, %20
  %22 = load ptr, ptr %2, align 8, !tbaa !53
  %23 = call ptr @rb_thread_call_without_gvl(ptr noundef @waitpid_blocking_no_SIGCHLD, ptr noundef %22, ptr noundef inttoptr (i64 -1 to ptr), ptr noundef null)
  br label %24

24:                                               ; preds = %21
  %25 = load ptr, ptr %2, align 8, !tbaa !53
  %26 = getelementptr inbounds nuw %struct.waitpid_state, ptr %25, i32 0, i32 3
  %27 = load i32, ptr %26, align 8, !tbaa !50
  %28 = icmp slt i32 %27, 0
  br i1 %28, label %29, label %37

29:                                               ; preds = %24
  %30 = call ptr @rb_errno_ptr()
  %31 = load i32, ptr %30, align 4, !tbaa !34
  %32 = icmp eq i32 %31, 4
  br i1 %32, label %33, label %37

33:                                               ; preds = %29
  %34 = load ptr, ptr %2, align 8, !tbaa !53
  %35 = getelementptr inbounds nuw %struct.waitpid_state, ptr %34, i32 0, i32 1
  %36 = load ptr, ptr %35, align 8, !tbaa !48
  call void @rb_vm_check_ints(ptr noundef %36)
  br label %37

37:                                               ; preds = %33, %29, %24
  %38 = phi i1 [ false, %29 ], [ false, %24 ], [ true, %33 ]
  br i1 %38, label %21, label %39, !llvm.loop !58

39:                                               ; preds = %37
  br label %40

40:                                               ; preds = %39, %8
  %41 = load ptr, ptr %2, align 8, !tbaa !53
  %42 = getelementptr inbounds nuw %struct.waitpid_state, ptr %41, i32 0, i32 3
  %43 = load i32, ptr %42, align 8, !tbaa !50
  %44 = icmp eq i32 %43, -1
  br i1 %44, label %45, label %50

45:                                               ; preds = %40
  %46 = call ptr @rb_errno_ptr()
  %47 = load i32, ptr %46, align 4, !tbaa !34
  %48 = load ptr, ptr %2, align 8, !tbaa !53
  %49 = getelementptr inbounds nuw %struct.waitpid_state, ptr %48, i32 0, i32 7
  store i32 %47, ptr %49, align 8, !tbaa !52
  br label %50

50:                                               ; preds = %45, %40
  ret void
}

; Function Attrs: inlinehint nounwind sspstrong uwtable
define internal ptr @rb_current_execution_context(i1 noundef zeroext %0) #1 {
  %2 = alloca i8, align 1
  %3 = alloca ptr, align 8
  %4 = zext i1 %0 to i8
  store i8 %4, ptr %2, align 1, !tbaa !57
  call void @llvm.lifetime.start.p0(i64 8, ptr %3) #27
  %5 = call align 8 ptr @llvm.threadlocal.address.p0(ptr align 8 @ruby_current_ec)
  %6 = load ptr, ptr %5, align 8, !tbaa !33
  store ptr %6, ptr %3, align 8, !tbaa !33
  %7 = load ptr, ptr %3, align 8, !tbaa !33
  call void @llvm.lifetime.end.p0(i64 8, ptr %3) #27
  ret ptr %7
}

; Function Attrs: nounwind sspstrong uwtable
define internal void @waitpid_state_init(ptr noundef %0, i32 noundef %1, i32 noundef %2) #0 {
  %4 = alloca ptr, align 8
  %5 = alloca i32, align 4
  %6 = alloca i32, align 4
  store ptr %0, ptr %4, align 8, !tbaa !53
  store i32 %1, ptr %5, align 4, !tbaa !34
  store i32 %2, ptr %6, align 4, !tbaa !34
  %7 = load ptr, ptr %4, align 8, !tbaa !53
  %8 = getelementptr inbounds nuw %struct.waitpid_state, ptr %7, i32 0, i32 3
  store i32 0, ptr %8, align 8, !tbaa !50
  %9 = load i32, ptr %5, align 4, !tbaa !34
  %10 = load ptr, ptr %4, align 8, !tbaa !53
  %11 = getelementptr inbounds nuw %struct.waitpid_state, ptr %10, i32 0, i32 4
  store i32 %9, ptr %11, align 4, !tbaa !55
  %12 = load i32, ptr %6, align 4, !tbaa !34
  %13 = load ptr, ptr %4, align 8, !tbaa !53
  %14 = getelementptr inbounds nuw %struct.waitpid_state, ptr %13, i32 0, i32 6
  store i32 %12, ptr %14, align 4, !tbaa !56
  %15 = load ptr, ptr %4, align 8, !tbaa !53
  %16 = getelementptr inbounds nuw %struct.waitpid_state, ptr %15, i32 0, i32 7
  store i32 0, ptr %16, align 8, !tbaa !52
  %17 = load ptr, ptr %4, align 8, !tbaa !53
  %18 = getelementptr inbounds nuw %struct.waitpid_state, ptr %17, i32 0, i32 5
  store i32 0, ptr %18, align 8, !tbaa !51
  ret void
}

; Function Attrs: inlinehint nounwind sspstrong willreturn memory(none) uwtable
define internal zeroext i1 @RB_UNDEF_P(i64 noundef %0) #4 {
  %2 = alloca i64, align 8
  store i64 %0, ptr %2, align 8, !tbaa !35
  %3 = load i64, ptr %2, align 8, !tbaa !35
  %4 = icmp eq i64 %3, 36
  ret i1 %4
}

; Function Attrs: nounwind sspstrong uwtable
define dso_local i64 @rb_process_status_wait(i32 noundef %0, i32 noundef %1) #0 {
  %3 = alloca i64, align 8
  %4 = alloca i32, align 4
  %5 = alloca i32, align 4
  %6 = alloca i64, align 8
  %7 = alloca i64, align 8
  %8 = alloca i32, align 4
  %9 = alloca %struct.waitpid_state, align 8
  store i32 %0, ptr %4, align 4, !tbaa !34
  store i32 %1, ptr %5, align 4, !tbaa !34
  %10 = load i32, ptr %5, align 4, !tbaa !34
  %11 = and i32 %10, 1
  %12 = icmp ne i32 %11, 0
  br i1 %12, label %34, label %13

13:                                               ; preds = %2
  call void @llvm.lifetime.start.p0(i64 8, ptr %6) #27
  %14 = call i64 @rb_fiber_scheduler_current()
  store i64 %14, ptr %6, align 8, !tbaa !35
  %15 = load i64, ptr %6, align 8, !tbaa !35
  %16 = icmp ne i64 %15, 4
  br i1 %16, label %17, label %30

17:                                               ; preds = %13
  call void @llvm.lifetime.start.p0(i64 8, ptr %7) #27
  %18 = load i64, ptr %6, align 8, !tbaa !35
  %19 = load i32, ptr %4, align 4, !tbaa !34
  %20 = load i32, ptr %5, align 4, !tbaa !34
  %21 = call i64 @rb_fiber_scheduler_process_wait(i64 noundef %18, i32 noundef %19, i32 noundef %20)
  store i64 %21, ptr %7, align 8, !tbaa !35
  %22 = load i64, ptr %7, align 8, !tbaa !35
  %23 = call zeroext i1 @RB_UNDEF_P(i64 noundef %22) #28
  br i1 %23, label %26, label %24

24:                                               ; preds = %17
  %25 = load i64, ptr %7, align 8, !tbaa !35
  store i64 %25, ptr %3, align 8
  store i32 1, ptr %8, align 4
  br label %27

26:                                               ; preds = %17
  store i32 0, ptr %8, align 4
  br label %27

27:                                               ; preds = %26, %24
  call void @llvm.lifetime.end.p0(i64 8, ptr %7) #27
  %28 = load i32, ptr %8, align 4
  switch i32 %28, label %31 [
    i32 0, label %29
  ]

29:                                               ; preds = %27
  br label %30

30:                                               ; preds = %29, %13
  store i32 0, ptr %8, align 4
  br label %31

31:                                               ; preds = %30, %27
  call void @llvm.lifetime.end.p0(i64 8, ptr %6) #27
  %32 = load i32, ptr %8, align 4
  switch i32 %32, label %54 [
    i32 0, label %33
    i32 1, label %52
  ]

33:                                               ; preds = %31
  br label %34

34:                                               ; preds = %33, %2
  call void @llvm.lifetime.start.p0(i64 56, ptr %9) #27
  %35 = load i32, ptr %4, align 4, !tbaa !34
  %36 = load i32, ptr %5, align 4, !tbaa !34
  call void @waitpid_state_init(ptr noundef %9, i32 noundef %35, i32 noundef %36)
  %37 = call ptr @rb_current_execution_context(i1 noundef zeroext true)
  %38 = getelementptr inbounds nuw %struct.waitpid_state, ptr %9, i32 0, i32 1
  store ptr %37, ptr %38, align 8, !tbaa !48
  call void @waitpid_no_SIGCHLD(ptr noundef %9)
  %39 = getelementptr inbounds nuw %struct.waitpid_state, ptr %9, i32 0, i32 3
  %40 = load i32, ptr %39, align 8, !tbaa !50
  %41 = icmp eq i32 %40, 0
  br i1 %41, label %42, label %43

42:                                               ; preds = %34
  store i64 4, ptr %3, align 8
  store i32 1, ptr %8, align 4
  br label %51

43:                                               ; preds = %34
  %44 = getelementptr inbounds nuw %struct.waitpid_state, ptr %9, i32 0, i32 3
  %45 = load i32, ptr %44, align 8, !tbaa !50
  %46 = getelementptr inbounds nuw %struct.waitpid_state, ptr %9, i32 0, i32 5
  %47 = load i32, ptr %46, align 8, !tbaa !51
  %48 = getelementptr inbounds nuw %struct.waitpid_state, ptr %9, i32 0, i32 7
  %49 = load i32, ptr %48, align 8, !tbaa !52
  %50 = call i64 @rb_process_status_new(i32 noundef %45, i32 noundef %47, i32 noundef %49)
  store i64 %50, ptr %3, align 8
  store i32 1, ptr %8, align 4
  br label %51

51:                                               ; preds = %43, %42
  call void @llvm.lifetime.end.p0(i64 56, ptr %9) #27
  br label %52

52:                                               ; preds = %51, %31
  %53 = load i64, ptr %3, align 8
  ret i64 %53

54:                                               ; preds = %31
  unreachable
}