; Function Attrs: nounwind sspstrong uwtable
define dso_local i64 @rb_process_status_wait(i32 noundef %0, i32 noundef %1) local_unnamed_addr #1 {
  %3 = alloca %struct.waitpid_state, align 8
  %4 = and i32 %1, 1
  %.not = icmp eq i32 %4, 0
  br i1 %.not, label %5, label %.thread

5:                                                ; preds = %2
  %6 = tail call i64 @rb_fiber_scheduler_current() #27
  %.not16 = icmp eq i64 %6, 4
  br i1 %.not16, label %.thread, label %7

7:                                                ; preds = %5
  %8 = tail call i64 @rb_fiber_scheduler_process_wait(i64 noundef %6, i32 noundef %0, i32 noundef %1) #27
  %9 = icmp eq i64 %8, 36
  br i1 %9, label %.thread, label %62

.thread:                                          ; preds = %7, %5, %2
  call void @llvm.lifetime.start.p0(i64 56, ptr nonnull %3) #27
  %10 = getelementptr inbounds nuw i8, ptr %3, i64 32
  store i32 0, ptr %10, align 8, !tbaa !53
  %11 = getelementptr inbounds nuw i8, ptr %3, i64 36
  store i32 %0, ptr %11, align 4, !tbaa !55
  %12 = getelementptr inbounds nuw i8, ptr %3, i64 44
  store i32 %1, ptr %12, align 4, !tbaa !56
  %13 = getelementptr inbounds nuw i8, ptr %3, i64 48
  store i32 0, ptr %13, align 8, !tbaa !57
  %14 = getelementptr inbounds nuw i8, ptr %3, i64 40
  store i32 0, ptr %14, align 8, !tbaa !58
  %15 = tail call align 8 ptr @llvm.threadlocal.address.p0(ptr align 8 @ruby_current_ec)
  %16 = load ptr, ptr %15, align 8, !tbaa !7
  %17 = getelementptr inbounds nuw i8, ptr %3, i64 16
  store ptr %16, ptr %17, align 8, !tbaa !59
  br i1 %.not, label %.preheader.i, label %21

.preheader.i:                                     ; preds = %.thread
  %18 = call ptr @rb_thread_call_without_gvl(ptr noundef nonnull @waitpid_blocking_no_SIGCHLD, ptr noundef nonnull %3, ptr noundef nonnull inttoptr (i64 -1 to ptr), ptr noundef null) #27
  %19 = load i32, ptr %10, align 8, !tbaa !53
  %20 = icmp slt i32 %19, 0
  br i1 %20, label %.lr.ph.i, label %waitpid_no_SIGCHLD.exit

21:                                               ; preds = %.thread
  %22 = call i32 @waitpid(i32 noundef %0, ptr noundef nonnull %14, i32 noundef %1) #27
  store i32 %22, ptr %10, align 8, !tbaa !53
  br label %.critedge.i

.lr.ph.i:                                         ; preds = %.preheader.i, %rb_vm_check_ints.exit.i
  %23 = call ptr @rb_errno_ptr() #27
  %24 = load i32, ptr %23, align 4, !tbaa !60
  %25 = icmp eq i32 %24, 4
  br i1 %25, label %26, label %..critedge.loopexit_crit_edge.i

..critedge.loopexit_crit_edge.i:                  ; preds = %.lr.ph.i
  %.pre.pre.i = load i32, ptr %10, align 8, !tbaa !53
  br label %.critedge.i

26:                                               ; preds = %.lr.ph.i
  %27 = load ptr, ptr %17, align 8, !tbaa !59
  %28 = getelementptr i8, ptr %27, i64 32
  %.val2.i.i = load i32, ptr %28, align 8, !tbaa !61
  %29 = getelementptr i8, ptr %27, i64 36
  %.val3.i.i = load i32, ptr %29, align 4, !tbaa !62
  %30 = xor i32 %.val3.i.i, -1
  %31 = and i32 %.val2.i.i, %30
  %.not.i.i = icmp eq i32 %31, 0
  br i1 %.not.i.i, label %rb_vm_check_ints.exit.i, label %32, !prof !63

32:                                               ; preds = %26
  %33 = getelementptr i8, ptr %27, i64 48
  %.val.i.i = load ptr, ptr %33, align 8, !tbaa !12
  %34 = call i32 @rb_threadptr_execute_interrupts(ptr noundef %.val.i.i, i32 noundef 0) #27
  br label %rb_vm_check_ints.exit.i

rb_vm_check_ints.exit.i:                          ; preds = %32, %26
  %35 = call ptr @rb_thread_call_without_gvl(ptr noundef nonnull @waitpid_blocking_no_SIGCHLD, ptr noundef nonnull %3, ptr noundef nonnull inttoptr (i64 -1 to ptr), ptr noundef null) #27
  %36 = load i32, ptr %10, align 8, !tbaa !53
  %37 = icmp slt i32 %36, 0
  br i1 %37, label %.lr.ph.i, label %waitpid_no_SIGCHLD.exit, !llvm.loop !64

.critedge.i:                                      ; preds = %..critedge.loopexit_crit_edge.i, %21
  %38 = phi i32 [ %22, %21 ], [ %.pre.pre.i, %..critedge.loopexit_crit_edge.i ]
  %39 = icmp eq i32 %38, -1
  br i1 %39, label %40, label %waitpid_no_SIGCHLD.exit

40:                                               ; preds = %.critedge.i
  %41 = call ptr @rb_errno_ptr() #27
  %42 = load i32, ptr %41, align 4, !tbaa !60
  store i32 %42, ptr %13, align 8, !tbaa !57
  %.pr.pre = load i32, ptr %10, align 8, !tbaa !53
  br label %waitpid_no_SIGCHLD.exit

waitpid_no_SIGCHLD.exit:                          ; preds = %rb_vm_check_ints.exit.i, %.critedge.i, %40, %.preheader.i
  %43 = phi i32 [ %19, %.preheader.i ], [ %.pr.pre, %40 ], [ %38, %.critedge.i ], [ %36, %rb_vm_check_ints.exit.i ]
  %44 = icmp eq i32 %43, 0
  br i1 %44, label %61, label %45

45:                                               ; preds = %waitpid_no_SIGCHLD.exit
  %46 = load i32, ptr %14, align 8, !tbaa !58
  %47 = load i32, ptr %13, align 8, !tbaa !57
  %48 = load i64, ptr @rb_cProcessStatus, align 8, !tbaa !43
  %49 = call i64 @rb_data_typed_object_zalloc(i64 noundef %48, i64 noundef 12, ptr noundef nonnull @rb_process_status_type) #27
  %50 = inttoptr i64 %49 to ptr
  %51 = getelementptr inbounds nuw i8, ptr %50, i64 24
  %52 = load i64, ptr %51, align 8, !tbaa !44
  %53 = and i64 %52, 2
  %.not.i.i17 = icmp eq i64 %53, 0
  %54 = getelementptr i8, ptr %50, i64 32
  br i1 %.not.i.i17, label %55, label %rb_process_status_new.exit

55:                                               ; preds = %45
  %56 = load ptr, ptr %54, align 8, !tbaa !48
  br label %rb_process_status_new.exit

rb_process_status_new.exit:                       ; preds = %45, %55
  %57 = phi ptr [ %56, %55 ], [ %54, %45 ]
  store i32 %43, ptr %57, align 4, !tbaa !49
  %58 = getelementptr inbounds nuw i8, ptr %57, i64 4
  store i32 %46, ptr %58, align 4, !tbaa !51
  %59 = getelementptr inbounds nuw i8, ptr %57, i64 8
  store i32 %47, ptr %59, align 4, !tbaa !52
  %60 = call i64 @rb_obj_freeze(i64 noundef %49) #27
  br label %61

61:                                               ; preds = %waitpid_no_SIGCHLD.exit, %rb_process_status_new.exit
  %.4 = phi i64 [ %49, %rb_process_status_new.exit ], [ 4, %waitpid_no_SIGCHLD.exit ]
  call void @llvm.lifetime.end.p0(i64 56, ptr nonnull %3) #27
  br label %62

62:                                               ; preds = %7, %61
  %.3 = phi i64 [ %.4, %61 ], [ %8, %7 ]
  ret i64 %.3
}